; Function Attrs: cold nounwind optsize uwtable
define void @ff_thread_free(ptr noundef %0) local_unnamed_addr #0 {
  %2 = getelementptr inbounds nuw i8, ptr %0, i64 664
  %3 = load i32, ptr %2, align 8, !tbaa !4
  %4 = and i32 %3, 1
  %.not = icmp eq i32 %4, 0
  br i1 %.not, label %8, label %5

5:                                                ; preds = %1
  %6 = getelementptr inbounds nuw i8, ptr %0, i64 656
  %7 = load i32, ptr %6, align 8, !tbaa !35
  tail call void @ff_frame_thread_free(ptr noundef nonnull %0, i32 noundef %7) #4
  br label %9

8:                                                ; preds = %1
  tail call void @ff_slice_thread_free(ptr noundef nonnull %0) #4
  br label %9

9:                                                ; preds = %8, %5
  ret void
}